; Function Attrs: mustprogress uwtable
define void @_ZN3nix17MixDefaultProfileC2Ev(ptr noundef nonnull align 8 dereferenceable(48) %0, ptr noundef %1) unnamed_addr #4 align 2 personality ptr @__gxx_personality_v0 {
  %3 = alloca %"class.std::__cxx11::basic_string", align 8
  %4 = getelementptr inbounds i8, ptr %1, i64 8
  tail call void @_ZN3nix10MixProfileC2Ev(ptr noundef nonnull align 8 dereferenceable(48) %0, ptr noundef nonnull %4)
  %5 = load ptr, ptr %1, align 8
  store ptr %5, ptr %0, align 8
  %6 = getelementptr inbounds i8, ptr %1, i64 40
  %7 = load ptr, ptr %6, align 8
  %8 = getelementptr i8, ptr %5, i64 -64
  %9 = load i64, ptr %8, align 8
  %10 = getelementptr inbounds i8, ptr %0, i64 %9
  store ptr %7, ptr %10, align 8
  %11 = getelementptr inbounds i8, ptr %1, i64 48
  %12 = load ptr, ptr %11, align 8
  %13 = load ptr, ptr %0, align 8
  %14 = getelementptr i8, ptr %13, i64 -72
  %15 = load i64, ptr %14, align 8
  %16 = getelementptr inbounds i8, ptr %0, i64 %15
  store ptr %12, ptr %16, align 8
  %17 = getelementptr inbounds i8, ptr %1, i64 56
  %18 = load ptr, ptr %17, align 8
  %19 = load ptr, ptr %0, align 8
  %20 = getelementptr i8, ptr %19, i64 -24
  %21 = load i64, ptr %20, align 8
  %22 = getelementptr inbounds i8, ptr %0, i64 %21
  store ptr %18, ptr %22, align 8
  invoke void @_ZN3nix17getDefaultProfileB5cxx11Ev(ptr dead_on_unwind nonnull writable sret(%"class.std::__cxx11::basic_string") align 8 %3)
          to label %23 unwind label %32

23:                                               ; preds = %2
  %24 = getelementptr inbounds i8, ptr %0, i64 8
  %25 = call noundef nonnull align 8 dereferenceable(40) ptr @_ZNSt8optionalINSt7__cxx1112basic_stringIcSt11char_traitsIcESaIcEEEEaSIS5_EENSt9enable_ifIX7__and_vISt6__not_ISt7is_sameIS6_NSt9remove_cvINSt16remove_referenceIT_E4typeEE4typeEEES9_ISt6__and_IJSt9is_scalarIS5_ESA_IS5_NSt5decayISD_E4typeEEEEESt16is_constructibleIS5_JSD_EESt13is_assignableIRS5_SD_EEERS6_E4typeEOSD_(ptr noundef nonnull align 8 dereferenceable(40) %24, ptr noundef nonnull align 8 dereferenceable(32) %3) #31
  %26 = load ptr, ptr %3, align 8
  %27 = getelementptr inbounds i8, ptr %3, i64 16
  %28 = icmp eq ptr %26, %27
  br i1 %28, label %_ZNKSt7__cxx1112basic_stringIcSt11char_traitsIcESaIcEE11_M_is_localEv.exit.thread.i.i, label %_ZNKSt7__cxx1112basic_stringIcSt11char_traitsIcESaIcEE11_M_is_localEv.exit.i.i

_ZNKSt7__cxx1112basic_stringIcSt11char_traitsIcESaIcEE11_M_is_localEv.exit.thread.i.i: ; preds = %23
  %29 = getelementptr inbounds i8, ptr %3, i64 8
  %30 = load i64, ptr %29, align 8
  %31 = icmp ult i64 %30, 16
  call void @llvm.assume(i1 %31)
  br label %_ZNSt7__cxx1112basic_stringIcSt11char_traitsIcESaIcEED2Ev.exit

_ZNKSt7__cxx1112basic_stringIcSt11char_traitsIcESaIcEE11_M_is_localEv.exit.i.i: ; preds = %23
  call void @_ZdlPv(ptr noundef %26) #34
  br label %_ZNSt7__cxx1112basic_stringIcSt11char_traitsIcESaIcEED2Ev.exit

_ZNSt7__cxx1112basic_stringIcSt11char_traitsIcESaIcEED2Ev.exit: ; preds = %_ZNKSt7__cxx1112basic_stringIcSt11char_traitsIcESaIcEE11_M_is_localEv.exit.thread.i.i, %_ZNKSt7__cxx1112basic_stringIcSt11char_traitsIcESaIcEE11_M_is_localEv.exit.i.i
  call void @_ZNSaIcED2Ev(ptr noundef nonnull align 1 dereferenceable(1) %3) #31
  ret void

32:                                               ; preds = %2
  %33 = landingpad { ptr, i32 }
          cleanup
  call void @_ZN3nix10MixProfileD2Ev(ptr noundef nonnull align 8 dereferenceable(48) %0, ptr noundef nonnull %4) #31
  resume { ptr, i32 } %33
}